; Function Attrs: mustprogress nofree norecurse nosync nounwind willreturn memory(read, argmem: readwrite, inaccessiblemem: none) uwtable
define noundef i32 @H5A__get_info(ptr nocapture noundef readonly %0, ptr nocapture noundef writeonly %1) local_unnamed_addr #6 {
  %3 = getelementptr inbounds i8, ptr %0, i64 96
  %4 = load ptr, ptr %3, align 8
  %5 = getelementptr inbounds i8, ptr %4, i64 16
  %6 = load i32, ptr %5, align 8
  %7 = getelementptr inbounds i8, ptr %1, i64 8
  store i32 %6, ptr %7, align 8
  %8 = load ptr, ptr %3, align 8
  %9 = getelementptr inbounds i8, ptr %8, i64 64
  %10 = load i64, ptr %9, align 8
  %11 = getelementptr inbounds i8, ptr %1, i64 16
  store i64 %10, ptr %11, align 8
  %12 = load ptr, ptr %3, align 8
  %13 = getelementptr inbounds i8, ptr %12, i64 72
  %14 = load i32, ptr %13, align 8
  %15 = icmp eq i32 %14, 65535
  br i1 %15, label %16, label %17

16:                                               ; preds = %2
  store i8 0, ptr %1, align 8
  br label %21

17:                                               ; preds = %2
  store i8 1, ptr %1, align 8
  %18 = load ptr, ptr %3, align 8
  %19 = getelementptr inbounds i8, ptr %18, i64 72
  %20 = load i32, ptr %19, align 8
  br label %21

21:                                               ; preds = %17, %16
  %.sink = phi i32 [ 0, %16 ], [ %20, %17 ]
  %22 = getelementptr inbounds i8, ptr %1, i64 4
  store i32 %.sink, ptr %22, align 4
  ret i32 0
}